target datalayout = "e-m:e-p270:32:32-p271:32:32-p272:64:64-i64:64-i128:128-f80:128-n8:16:32:64-S128"
target triple = "x86_64-pc-linux-gnu"

@hf_mpeg_descr_ca_identifier_system_id = internal global i32 0, align 4

; Function Attrs: null_pointer_is_valid sspstrong uwtable
define internal void @proto_mpeg_descriptor_dissect_ca_identifier(ptr noundef %0, i32 noundef %1, i32 noundef %2, ptr noundef %3) #1 {
  %5 = alloca ptr, align 8
  %6 = alloca i32, align 4
  %7 = alloca i32, align 4
  %8 = alloca ptr, align 8
  %9 = alloca i32, align 4
  store ptr %0, ptr %5, align 8
  store i32 %1, ptr %6, align 4
  store i32 %2, ptr %7, align 4
  store ptr %3, ptr %8, align 8
  call void @llvm.lifetime.start.p0(i64 4, ptr %9) #4
  %10 = load i32, ptr %6, align 4
  %11 = load i32, ptr %7, align 4
  %12 = add i32 %10, %11
  store i32 %12, ptr %9, align 4
  br label %13

13:                                               ; preds = %17, %4
  %14 = load i32, ptr %6, align 4
  %15 = load i32, ptr %9, align 4
  %16 = icmp ult i32 %14, %15
  br i1 %16, label %17, label %25

17:                                               ; preds = %13
  %18 = load ptr, ptr %8, align 8
  %19 = load i32, ptr @hf_mpeg_descr_ca_identifier_system_id, align 4
  %20 = load ptr, ptr %5, align 8
  %21 = load i32, ptr %6, align 4
  %22 = call ptr @proto_tree_add_item(ptr noundef %18, i32 noundef %19, ptr noundef %20, i32 noundef %21, i32 noundef 2, i32 noundef 0)
  %23 = load i32, ptr %6, align 4
  %24 = add i32 %23, 2
  store i32 %24, ptr %6, align 4
  br label %13, !llvm.loop !17

25:                                               ; preds = %13
  call void @llvm.lifetime.end.p0(i64 4, ptr %9) #4
  ret void
}