; Function Attrs: null_pointer_is_valid sspstrong uwtable
define internal fastcc void @proto_mpeg_descriptor_dissect_ca_identifier(ptr noundef %0, i32 noundef %1, i32 noundef range(i32 1, 256) %2, ptr noundef %3) unnamed_addr #1 {
  %5 = add i32 %2, %1
  %6 = icmp ult i32 %1, %5
  br i1 %6, label %.lr.ph, label %._crit_edge

.lr.ph:                                           ; preds = %4, %.lr.ph
  %.07 = phi i32 [ %9, %.lr.ph ], [ %1, %4 ]
  %7 = load i32, ptr @hf_mpeg_descr_ca_identifier_system_id, align 4
  %8 = tail call ptr @proto_tree_add_item(ptr noundef %3, i32 noundef %7, ptr noundef %0, i32 noundef %.07, i32 noundef 2, i32 noundef 0)
  %9 = add i32 %.07, 2
  %10 = icmp ult i32 %9, %5
  br i1 %10, label %.lr.ph, label %._crit_edge, !llvm.loop !17

._crit_edge:                                      ; preds = %.lr.ph, %4
  ret void
}